; Function Attrs: mustprogress nounwind uwtable
define hidden void @_ZN16ZStatTimerWorkerC2ERK10ZStatPhase(ptr noundef nonnull align 8 dereferenceable(32) %0, ptr noundef nonnull align 8 dereferenceable(48) %1) unnamed_addr #0 align 2 {
  store ptr null, ptr %0, align 8
  %3 = getelementptr inbounds i8, ptr %0, i64 8
  store ptr %1, ptr %3, align 8
  %4 = getelementptr inbounds i8, ptr %0, i64 16
  %5 = tail call { i64, i64 } @_ZN29CompositeElapsedCounterSource3nowEv() #20
  %6 = extractvalue { i64, i64 } %5, 0
  store i64 %6, ptr %4, align 8
  %7 = getelementptr inbounds i8, ptr %0, i64 24
  %8 = extractvalue { i64, i64 } %5, 1
  store i64 %8, ptr %7, align 8
  %9 = load ptr, ptr %3, align 8
  %10 = load ptr, ptr %0, align 8
  %11 = load ptr, ptr %9, align 8
  %12 = load ptr, ptr %11, align 8
  tail call void %12(ptr noundef nonnull align 8 dereferenceable(48) %9, ptr noundef %10, ptr noundef nonnull align 8 dereferenceable(16) %4) #20
  ret void
}